; Function Attrs: nounwind uwtable
define internal noundef i32 @_foreach_cache_job(ptr noundef readonly captures(none) %0, ptr readnone captures(none) %1, ptr noundef captures(none) %2) #0 {
  %4 = getelementptr inbounds nuw i8, ptr %2, i64 8
  %5 = load i32, ptr %4, align 8
  %6 = add i32 %5, 1
  store i32 %6, ptr %4, align 8
  %7 = getelementptr inbounds nuw i8, ptr %2, i64 24
  %8 = load i8, ptr %7, align 8, !range !13, !noundef !14
  %9 = trunc nuw i8 %8 to i1
  br i1 %9, label %_add_cache_job.exit, label %_append_job_state.exit.i

_append_job_state.exit.i:                         ; preds = %3
  %10 = getelementptr inbounds nuw i8, ptr %2, i64 16
  %11 = load ptr, ptr %10, align 8
  %12 = sext i32 %5 to i64
  %13 = getelementptr inbounds %struct.job_state_response_job_t, ptr %11, i64 %12
  %.not.i = icmp eq ptr %11, null
  br i1 %.not.i, label %_add_cache_job.exit, label %14

14:                                               ; preds = %_append_job_state.exit.i
  %15 = load i32, ptr %0, align 8
  store i32 %15, ptr %13, align 8
  %16 = getelementptr inbounds nuw i8, ptr %0, i64 12
  %17 = load i32, ptr %16, align 4
  %18 = getelementptr inbounds nuw i8, ptr %13, i64 4
  store i32 %17, ptr %18, align 4
  %19 = getelementptr inbounds nuw i8, ptr %0, i64 16
  %20 = load i32, ptr %19, align 8
  %21 = getelementptr inbounds nuw i8, ptr %13, i64 8
  store i32 %20, ptr %21, align 8
  %22 = getelementptr inbounds nuw i8, ptr %0, i64 24
  %23 = load ptr, ptr %22, align 8
  %.not17.i = icmp eq ptr %23, null
  br i1 %.not17.i, label %27, label %24

24:                                               ; preds = %14
  %25 = tail call ptr @bit_copy(ptr noundef nonnull %23) #9
  %26 = getelementptr inbounds nuw i8, ptr %13, i64 16
  store ptr %25, ptr %26, align 8
  br label %27

27:                                               ; preds = %24, %14
  %28 = getelementptr inbounds nuw i8, ptr %0, i64 8
  %29 = load i32, ptr %28, align 8
  %30 = getelementptr inbounds nuw i8, ptr %13, i64 24
  store i32 %29, ptr %30, align 8
  %31 = getelementptr inbounds nuw i8, ptr %0, i64 4
  %32 = load i32, ptr %31, align 4
  %33 = getelementptr inbounds nuw i8, ptr %13, i64 28
  store i32 %32, ptr %33, align 4
  br label %_add_cache_job.exit

_add_cache_job.exit:                              ; preds = %3, %_append_job_state.exit.i, %27
  ret i32 1
}